Certificate:
    Data:
        Version: 3 (0x2)
        Serial Number: 1 (0x1)
    Signature Algorithm: sha1WithRSAEncryption
        Issuer: C=CN, ST=SH, L=SH, O=Banma, OU=Banma, CN=banma.com/emailAddress=xxx@banma.com
        Validity
            Not Before: Apr 14 09:41:55 2017 GMT
            Not After : Apr 14 09:41:55 2018 GMT
        Subject: C=CN, ST=SH, L=SH, O=BANMA, OU=BANMA, CN=BM/emailAddress=xxx@banma.com
        Subject Public Key Info:
            Public Key Algorithm: rsaEncryption
                Public-Key: (2048 bit)
                Modulus:
                    00:a7:c0:f3:62:82:3c:a4:83:2d:da:3f:ba:8f:33:
                    26:05:cd:46:ab:5d:32:ab:f3:e9:dc:83:c8:08:d6:
                    7e:a4:1c:62:67:28:4b:bf:86:ac:b1:b2:5b:c6:dd:
                    1c:f4:83:16:a9:65:c1:12:fd:b8:9f:cf:a0:4c:7f:
                    8b:9c:b1:40:c3:c2:fa:3e:f9:59:8d:b9:c7:ea:8f:
                    36:c4:9c:a2:a7:64:9f:79:79:0e:c1:76:ab:ab:9e:
                    77:09:c4:2d:28:2d:01:72:ca:2c:df:9f:3f:99:93:
                    15:d5:18:7b:94:ed:76:60:56:6c:68:1f:93:d4:29:
                    15:d3:9c:6c:cb:b0:f6:e5:3b:db:b6:9b:d3:5b:49:
                    42:d8:cb:a2:4f:98:3f:58:41:07:6e:a9:45:bb:79:
                    44:18:f8:58:62:d5:52:fa:33:38:eb:fb:50:37:e0:
                    8a:ae:68:15:97:ac:1e:5d:ad:3e:25:e3:6b:55:9d:
                    1d:49:3e:89:7f:ad:27:8a:89:9d:bd:9a:d1:93:8d:
                    93:3b:71:bb:5d:e6:a0:a7:c9:dc:62:39:58:f4:0a:
                    16:e1:33:3a:00:b9:2d:5d:e0:47:25:6d:a9:1c:a4:
                    fe:91:cb:09:5f:18:15:4a:db:1f:6f:5d:e4:fa:ed:
                    d6:f1:f4:34:3d:8a:19:78:c8:4a:1f:a7:9d:fd:67:
                    1b:73
                Exponent: 65537 (0x10001)
        X509v3 extensions:
            X509v3 Basic Constraints: 
                CA:FALSE
            Netscape Comment: 
                OpenSSL Generated Certificate
            X509v3 Subject Key Identifier: 
                D9:EA:2D:A3:50:FF:A3:C9:25:B0:74:BC:16:8D:EA:50:4C:0A:E6:D9
            X509v3 Authority Key Identifier: 
                keyid:7B:30:7A:A7:EE:86:2A:8B:79:AB:39:35:17:DF:7F:22:04:12:9C:E8

    Signature Algorithm: sha1WithRSAEncryption
         7a:82:e2:9c:c7:a1:7b:52:00:a6:0f:66:b1:75:fc:5a:5a:cd:
         cc:13:0e:d8:86:cc:ae:2a:37:f5:65:2a:13:ab:59:19:54:cc:
         f0:31:df:5b:22:b9:41:64:34:c1:d7:93:8c:f0:9c:3e:90:46:
         02:77:42:a5:59:74:4c:4c:ce:57:9b:1d:98:78:cb:1c:c0:7f:
         20:c4:3d:86:cd:c6:e4:71:76:cb:c6:96:b1:86:c3:d3:9e:0a:
         a9:e2:24:46:e5:06:68:6d:e1:5c:35:d4:7a:99:0b:fc:f2:a9:
         e2:1e:3a:32:4f:7b:58:9f:b7:03:a6:00:89:0d:fb:d4:3b:53:
         70:2f:f0:3d:03:88:66:fd:a0:ec:f0:81:0d:ac:cb:02:81:bf:
         df:57:88:6d:3b:28:ab:60:6a:7f:27:45:c9:b5:47:da:20:8e:
         36:f1:03:06:12:18:70:58:c2:36:7e:0e:7b:bb:b2:c8:1c:f1:
         12:23:65:32:c7:5f:bd:08:ff:61:8d:c5:0e:30:f1:db:2e:a9:
         6d:0c:7e:4a:2b:4b:62:92:99:65:d3:77:ad:5f:b1:9f:ba:c7:
         ac:7a:20:de:65:5e:06:30:75:d6:de:95:37:a6:55:ef:e0:6c:
         82:f6:d1:2d:50:ec:1f:14:6c:b8:d2:df:e9:44:96:9d:c4:f0:
         3e:0f:89:e8
-----BEGIN CERTIFICATE-----
MIID4TCCAsmgAwIBAgIBATANBgkqhkiG9w0BAQUFADB5MQswCQYDVQQGEwJDTjEL
MAkGA1UECAwCU0gxCzAJBgNVBAcMAlNIMQ4wDAYDVQQKDAVCYW5tYTEOMAwGA1UE
CwwFQmFubWExEjAQBgNVBAMMCWJhbm1hLmNvbTEcMBoGCSqGSIb3DQEJARYNeHh4
QGJhbm1hLmNvbTAeFw0xNzA0MTQwOTQxNTVaFw0xODA0MTQwOTQxNTVaMHIxCzAJ
BgNVBAYTAkNOMQswCQYDVQQIDAJTSDELMAkGA1UEBwwCU0gxDjAMBgNVBAoMBUJB
Tk1BMQ4wDAYDVQQLDAVCQU5NQTELMAkGA1UEAwwCQk0xHDAaBgkqhkiG9w0BCQEW
DXh4eEBiYW5tYS5jb20wggEiMA0GCSqGSIb3DQEBAQUAA4IBDwAwggEKAoIBAQCn
wPNigjykgy3aP7qPMyYFzUarXTKr8+ncg8gI1n6kHGJnKEu/hqyxslvG3Rz0gxap
ZcES/bifz6BMf4ucsUDDwvo++VmNucfqjzbEnKKnZJ95eQ7BdqurnncJxC0oLQFy
yizfnz+ZkxXVGHuU7XZgVmxoH5PUKRXTnGzLsPblO9u2m9NbSULYy6JPmD9YQQdu
qUW7eUQY+Fhi1VL6Mzjr+1A34IquaBWXrB5drT4l42tVnR1JPol/rSeKiZ29mtGT
jZM7cbtd5qCnydxiOVj0ChbhMzoAuS1d4EclbakcpP6RywlfGBVK2x9vXeT67dbx
9DQ9ihl4yEofp539ZxtzAgMBAAGjezB5MAkGA1UdEwQCMAAwLAYJYIZIAYb4QgEN
BB8WHU9wZW5TU0wgR2VuZXJhdGVkIENlcnRpZmljYXRlMB0GA1UdDgQWBBTZ6i2j
UP+jySWwdLwWjepQTArm2TAfBgNVHSMEGDAWgBR7MHqn7oYqi3mrOTUX338iBBKc
6DANBgkqhkiG9w0BAQUFAAOCAQEAeoLinMehe1IApg9msXX8WlrNzBMO2IbMrio3
9WUqE6tZGVTM8DHfWyK5QWQ0wdeTjPCcPpBGAndCpVl0TEzOV5sdmHjLHMB/IMQ9
hs3G5HF2y8aWsYbD054KqeIkRuUGaG3hXDXUepkL/PKp4h46Mk97WJ+3A6YAiQ37
1DtTcC/wPQOIZv2g7PCBDazLAoG/31eIbTsoq2BqfydFybVH2iCONvEDBhIYcFjC
Nn4Oe7uyyBzxEiNlMsdfvQj/YY3FDjDx2y6pbQx+SitLYpKZZdN3rV+xn7rHrHog
3mVeBjB11t6VN6ZV7+BsgvbRLVDsHxRsuNLf6USWncTwPg+J6A==
-----END CERTIFICATE-----
