Certificate:
    Data:
        Version: 3 (0x2)
        Serial Number: 1 (0x1)
    Signature Algorithm: sha256WithRSAEncryption
        Issuer: C=CN, ST=Shanghai, L=Shanghai, O=Banma, OU=Banma Security, CN=ROOT CA/emailAddress=root@alibaba-inc.com
        Validity
            Not Before: May 27 02:08:52 2017 GMT
            Not After : May 27 02:08:52 2018 GMT
        Subject: C=CN, ST=Shanghai, L=Shanghai, O=Banma, OU=Banma, CN=FOTA CA/emailAddress=fota_ca@alibaba-inc.com
        Subject Public Key Info:
            Public Key Algorithm: rsaEncryption
                Public-Key: (2048 bit)
                Modulus:
                    00:c4:f8:37:0f:3a:73:94:22:9d:5e:b8:6c:bf:ef:
                    72:10:70:a9:9f:21:77:51:c1:8a:cb:77:29:10:34:
                    2d:ed:93:dc:ea:fd:c0:06:85:b4:08:30:76:2e:40:
                    36:51:b3:ce:87:bf:21:bb:a2:ec:c9:41:55:ec:57:
                    4b:56:02:34:ca:79:57:90:9b:6c:32:b3:cf:d4:eb:
                    a4:c9:5f:92:7a:2f:c0:22:e0:a5:f6:8a:01:47:9f:
                    7d:b8:da:24:a6:d2:5e:d3:b6:32:c4:e6:bb:33:77:
                    cf:f7:ec:c7:16:50:f4:9b:1d:75:79:85:b8:a5:56:
                    80:1d:a3:dd:63:a9:c3:02:60:32:5d:52:ac:9a:70:
                    bd:1d:47:12:22:1b:e5:1f:e3:00:17:b6:a9:b7:ac:
                    28:be:e1:ba:a7:e9:4d:57:1b:e8:d9:b0:eb:fe:f8:
                    c5:d1:4e:cd:58:b2:76:1e:0a:99:9e:17:2c:2f:92:
                    fa:da:51:64:b1:2b:58:20:0a:85:1b:cb:6e:95:da:
                    f4:5a:59:35:3c:10:e0:a2:42:d5:bc:c6:9f:fa:78:
                    05:6b:fb:22:27:5f:7a:71:90:15:f9:78:b2:72:2b:
                    8b:29:fc:0b:55:6a:5f:52:cd:29:cc:d4:2a:19:e7:
                    1a:f1:ad:68:91:00:45:63:f3:57:36:28:da:79:57:
                    8f:75
                Exponent: 65537 (0x10001)
        X509v3 extensions:
            X509v3 Basic Constraints: 
                CA:FALSE
            Netscape Comment: 
                OpenSSL Generated Certificate
            X509v3 Subject Key Identifier: 
                0A:9E:35:39:5E:41:6A:D0:6D:13:9F:0B:67:51:AB:1C:6B:B1:B8:58
            X509v3 Authority Key Identifier: 
                keyid:ED:4A:9D:05:47:48:66:1E:4E:90:97:7F:21:49:ED:F3:19:7A:EC:BD

    Signature Algorithm: sha256WithRSAEncryption
         43:f3:26:e7:64:12:c1:48:24:05:f3:c3:5f:29:33:11:e7:f6:
         3a:b6:0c:08:33:aa:76:e9:08:7d:b1:38:2d:7e:bc:e7:99:b3:
         d4:aa:b6:42:59:32:60:d9:00:b9:18:02:05:6f:b6:1f:3f:da:
         e9:ac:8b:70:bc:3c:ad:73:78:36:eb:50:a5:43:f2:af:fb:dc:
         41:cf:12:11:02:62:94:33:3c:60:dc:3a:a8:16:0c:b1:8f:43:
         a5:8b:b3:64:58:71:ab:8e:79:a0:9d:7f:9e:f4:67:05:a2:e8:
         04:f6:eb:df:1b:0d:b9:5b:e7:5f:19:cd:5c:3a:ec:44:fe:ee:
         4a:67:5e:4a:ed:ef:a9:23:75:12:df:33:5f:0a:01:f2:44:84:
         ad:d0:45:c7:85:ef:de:af:bf:57:4a:1a:7a:14:f1:96:76:ab:
         d3:d2:48:65:7e:c3:53:48:c1:2b:5c:61:54:19:26:9e:91:fb:
         bb:74:e6:01:5f:69:bf:fa:38:ec:bc:e3:a4:44:43:33:59:7c:
         3f:6f:9f:52:07:1f:b5:d0:b7:3a:5d:80:57:a8:19:f8:83:92:
         dc:15:e7:53:54:ef:14:cc:ef:0f:0b:ca:1d:f5:dc:f8:2f:14:
         b8:d6:fb:77:16:14:c7:79:e8:63:48:75:dc:62:7e:8b:ee:82:
         3f:25:9b:41
-----BEGIN CERTIFICATE-----
MIIEGDCCAwCgAwIBAgIBATANBgkqhkiG9w0BAQsFADCBkzELMAkGA1UEBhMCQ04x
ETAPBgNVBAgMCFNoYW5naGFpMREwDwYDVQQHDAhTaGFuZ2hhaTEOMAwGA1UECgwF
QmFubWExFzAVBgNVBAsMDkJhbm1hIFNlY3VyaXR5MRAwDgYDVQQDDAdST09UIENB
MSMwIQYJKoZIhvcNAQkBFhRyb290QGFsaWJhYmEtaW5jLmNvbTAeFw0xNzA1Mjcw
MjA4NTJaFw0xODA1MjcwMjA4NTJaMIGNMQswCQYDVQQGEwJDTjERMA8GA1UECAwI
U2hhbmdoYWkxETAPBgNVBAcMCFNoYW5naGFpMQ4wDAYDVQQKDAVCYW5tYTEOMAwG
A1UECwwFQmFubWExEDAOBgNVBAMMB0ZPVEEgQ0ExJjAkBgkqhkiG9w0BCQEWF2Zv
dGFfY2FAYWxpYmFiYS1pbmMuY29tMIIBIjANBgkqhkiG9w0BAQEFAAOCAQ8AMIIB
CgKCAQEAxPg3DzpzlCKdXrhsv+9yEHCpnyF3UcGKy3cpEDQt7ZPc6v3ABoW0CDB2
LkA2UbPOh78hu6LsyUFV7FdLVgI0ynlXkJtsMrPP1OukyV+Sei/AIuCl9ooBR599
uNokptJe07YyxOa7M3fP9+zHFlD0mx11eYW4pVaAHaPdY6nDAmAyXVKsmnC9HUcS
IhvlH+MAF7apt6wovuG6p+lNVxvo2bDr/vjF0U7NWLJ2HgqZnhcsL5L62lFksStY
IAqFG8tuldr0Wlk1PBDgokLVvMaf+ngFa/siJ196cZAV+XiyciuLKfwLVWpfUs0p
zNQqGeca8a1okQBFY/NXNijaeVePdQIDAQABo3sweTAJBgNVHRMEAjAAMCwGCWCG
SAGG+EIBDQQfFh1PcGVuU1NMIEdlbmVyYXRlZCBDZXJ0aWZpY2F0ZTAdBgNVHQ4E
FgQUCp41OV5BatBtE58LZ1GrHGuxuFgwHwYDVR0jBBgwFoAU7UqdBUdIZh5OkJd/
IUnt8xl67L0wDQYJKoZIhvcNAQELBQADggEBAEPzJudkEsFIJAXzw18pMxHn9jq2
DAgzqnbpCH2xOC1+vOeZs9SqtkJZMmDZALkYAgVvth8/2umsi3C8PK1zeDbrUKVD
8q/73EHPEhECYpQzPGDcOqgWDLGPQ6WLs2RYcauOeaCdf570ZwWi6AT2698bDblb
518ZzVw67ET+7kpnXkrt76kjdRLfM18KAfJEhK3QRceF796vv1dKGnoU8ZZ2q9PS
SGV+w1NIwStcYVQZJp6R+7t05gFfab/6OOy846REQzNZfD9vn1IHH7XQtzpdgFeo
GfiDktwV51NU7xTM7w8Lyh313PgvFLjW+3cWFMd56GNIddxifovugj8lm0E=
-----END CERTIFICATE-----
